; ModuleID = '27/713.cpp'
source_filename = "27/713.cpp"
target datalayout = "e-m:e-p270:32:32-p271:32:32-p272:64:64-i64:64-f80:128-n8:16:32:64-S128"
target triple = "x86_64-pc-linux-gnu"

%"class.std::ios_base::Init" = type { i8 }
%"class.std::basic_istream" = type { i32 (...)**, i64, %"class.std::basic_ios" }
%"class.std::basic_ios" = type { %"class.std::ios_base", %"class.std::basic_ostream"*, i8, i8, %"class.std::basic_streambuf"*, %"class.std::ctype"*, %"class.std::num_put"*, %"class.std::num_get"* }
%"class.std::ios_base" = type { i32 (...)**, i64, i64, i32, i32, i32, %"struct.std::ios_base::_Callback_list"*, %"struct.std::ios_base::_Words", [8 x %"struct.std::ios_base::_Words"], i32, %"struct.std::ios_base::_Words"*, %"class.std::locale" }
%"struct.std::ios_base::_Callback_list" = type { %"struct.std::ios_base::_Callback_list"*, void (i32, %"class.std::ios_base"*, i32)*, i32, i32 }
%"struct.std::ios_base::_Words" = type { i8*, i64 }
%"class.std::locale" = type { %"class.std::locale::_Impl"* }
%"class.std::locale::_Impl" = type { i32, %"class.std::locale::facet"**, i64, %"class.std::locale::facet"**, i8** }
%"class.std::locale::facet" = type <{ i32 (...)**, i32, [4 x i8] }>
%"class.std::basic_ostream" = type { i32 (...)**, %"class.std::basic_ios" }
%"class.std::basic_streambuf" = type { i32 (...)**, i8*, i8*, i8*, i8*, i8*, i8*, %"class.std::locale" }
%"class.std::ctype" = type <{ %"class.std::locale::facet.base", [4 x i8], %struct.__locale_struct*, i8, [7 x i8], i32*, i32*, i16*, i8, [256 x i8], [256 x i8], i8, [6 x i8] }>
%"class.std::locale::facet.base" = type <{ i32 (...)**, i32 }>
%struct.__locale_struct = type { [13 x %struct.__locale_data*], i16*, i32*, i32*, [13 x i8*] }
%struct.__locale_data = type opaque
%"class.std::num_put" = type { %"class.std::locale::facet.base", [4 x i8] }
%"class.std::num_get" = type { %"class.std::locale::facet.base", [4 x i8] }

@_ZStL8__ioinit = internal global %"class.std::ios_base::Init" zeroinitializer, align 1
@__dso_handle = external hidden global i8
@_ZSt3cin = external dso_local global %"class.std::basic_istream", align 8
@.str = private unnamed_addr constant [12 x i8] c"x1=x2=%.5f\0A\00", align 1
@.str.1 = private unnamed_addr constant [29 x i8] c"x1=%.5f+%.5fi;x2=%.5f-%.5fi\0A\00", align 1
@.str.2 = private unnamed_addr constant [17 x i8] c"x1=%.5f;x2=%.5f\0A\00", align 1
@llvm.global_ctors = appending global [1 x { i32, void ()*, i8* }] [{ i32, void ()*, i8* } { i32 65535, void ()* @_GLOBAL__sub_I_713.cpp, i8* null }]

; Function Attrs: noinline uwtable
define internal void @__cxx_global_var_init() #0 section ".text.startup" {
  call void @_ZNSt8ios_base4InitC1Ev(%"class.std::ios_base::Init"* @_ZStL8__ioinit)
  %1 = call i32 @__cxa_atexit(void (i8*)* bitcast (void (%"class.std::ios_base::Init"*)* @_ZNSt8ios_base4InitD1Ev to void (i8*)*), i8* getelementptr inbounds (%"class.std::ios_base::Init", %"class.std::ios_base::Init"* @_ZStL8__ioinit, i32 0, i32 0), i8* @__dso_handle) #3
  ret void
}

declare dso_local void @_ZNSt8ios_base4InitC1Ev(%"class.std::ios_base::Init"*) unnamed_addr #1

; Function Attrs: nounwind
declare dso_local void @_ZNSt8ios_base4InitD1Ev(%"class.std::ios_base::Init"*) unnamed_addr #2

; Function Attrs: nounwind
declare dso_local i32 @__cxa_atexit(void (i8*)*, i8*, i8*) #3

; Function Attrs: noinline norecurse uwtable
define dso_local i32 @main() #4 {
  %1 = alloca i32, align 4
  %2 = alloca i32, align 4
  %3 = alloca double, align 8
  %4 = alloca double, align 8
  %5 = alloca double, align 8
  %6 = alloca double, align 8
  %7 = alloca double, align 8
  %8 = alloca double, align 8
  %9 = alloca double, align 8
  %10 = alloca double, align 8
  store i32 0, i32* %1, align 4
  %11 = call dereferenceable(280) %"class.std::basic_istream"* @_ZNSirsERi(%"class.std::basic_istream"* @_ZSt3cin, i32* dereferenceable(4) %2)
  br label %12

12:                                               ; preds = %106, %0
  %13 = load i32, i32* %2, align 4
  %14 = add nsw i32 %13, -1
  store i32 %14, i32* %2, align 4
  %15 = icmp ne i32 %13, 0
  br i1 %15, label %16, label %107

16:                                               ; preds = %12
  store double 0.000000e+00, double* %8, align 8
  %17 = call dereferenceable(280) %"class.std::basic_istream"* @_ZNSirsERd(%"class.std::basic_istream"* @_ZSt3cin, double* dereferenceable(8) %3)
  %18 = call dereferenceable(280) %"class.std::basic_istream"* @_ZNSirsERd(%"class.std::basic_istream"* %17, double* dereferenceable(8) %4)
  %19 = call dereferenceable(280) %"class.std::basic_istream"* @_ZNSirsERd(%"class.std::basic_istream"* %18, double* dereferenceable(8) %5)
  %20 = load double, double* %4, align 8
  %21 = load double, double* %4, align 8
  %22 = fmul double %20, %21
  %23 = load double, double* %3, align 8
  %24 = fmul double 4.000000e+00, %23
  %25 = load double, double* %5, align 8
  %26 = fmul double %24, %25
  %27 = fsub double %22, %26
  store double %27, double* %8, align 8
  %28 = load double, double* %8, align 8
  %29 = fcmp oeq double %28, 0.000000e+00
  br i1 %29, label %30, label %38

30:                                               ; preds = %16
  %31 = load double, double* %4, align 8
  %32 = fneg double %31
  %33 = load double, double* %3, align 8
  %34 = fmul double 2.000000e+00, %33
  %35 = fdiv double %32, %34
  store double %35, double* %10, align 8
  store double %35, double* %9, align 8
  %36 = load double, double* %9, align 8
  %37 = call i32 (i8*, ...) @printf(i8* getelementptr inbounds ([12 x i8], [12 x i8]* @.str, i64 0, i64 0), double %36)
  br label %106

38:                                               ; preds = %16
  %39 = load double, double* %8, align 8
  %40 = fcmp olt double %39, 0.000000e+00
  br i1 %40, label %41, label %71

41:                                               ; preds = %38
  %42 = load double, double* %4, align 8
  %43 = fneg double %42
  %44 = load double, double* %3, align 8
  %45 = fmul double 2.000000e+00, %44
  %46 = fdiv double %43, %45
  store double %46, double* %6, align 8
  %47 = load double, double* %3, align 8
  %48 = fmul double 4.000000e+00, %47
  %49 = load double, double* %5, align 8
  %50 = fmul double %48, %49
  %51 = load double, double* %4, align 8
  %52 = load double, double* %4, align 8
  %53 = fmul double %51, %52
  %54 = fsub double %50, %53
  %55 = call double @sqrt(double %54) #3
  %56 = load double, double* %3, align 8
  %57 = fmul double 2.000000e+00, %56
  %58 = fdiv double %55, %57
  store double %58, double* %7, align 8
  %59 = load double, double* %6, align 8
  %60 = fcmp ole double %59, 0.000000e+00
  br i1 %60, label %61, label %65

61:                                               ; preds = %41
  %62 = load double, double* %6, align 8
  %63 = fcmp ogt double %62, 0xBEB0C6F7A0B5ED8D
  br i1 %63, label %64, label %65

64:                                               ; preds = %61
  store double 0x3E7AD7F29ABCAF48, double* %6, align 8
  br label %65

65:                                               ; preds = %64, %61, %41
  %66 = load double, double* %6, align 8
  %67 = load double, double* %7, align 8
  %68 = load double, double* %6, align 8
  %69 = load double, double* %7, align 8
  %70 = call i32 (i8*, ...) @printf(i8* getelementptr inbounds ([29 x i8], [29 x i8]* @.str.1, i64 0, i64 0), double %66, double %67, double %68, double %69)
  br label %105

71:                                               ; preds = %38
  %72 = load double, double* %4, align 8
  %73 = fneg double %72
  %74 = load double, double* %4, align 8
  %75 = load double, double* %4, align 8
  %76 = fmul double %74, %75
  %77 = load double, double* %3, align 8
  %78 = fmul double 4.000000e+00, %77
  %79 = load double, double* %5, align 8
  %80 = fmul double %78, %79
  %81 = fsub double %76, %80
  %82 = call double @sqrt(double %81) #3
  %83 = fadd double %73, %82
  %84 = load double, double* %3, align 8
  %85 = fmul double 2.000000e+00, %84
  %86 = fdiv double %83, %85
  store double %86, double* %9, align 8
  %87 = load double, double* %4, align 8
  %88 = fneg double %87
  %89 = load double, double* %4, align 8
  %90 = load double, double* %4, align 8
  %91 = fmul double %89, %90
  %92 = load double, double* %3, align 8
  %93 = fmul double 4.000000e+00, %92
  %94 = load double, double* %5, align 8
  %95 = fmul double %93, %94
  %96 = fsub double %91, %95
  %97 = call double @sqrt(double %96) #3
  %98 = fsub double %88, %97
  %99 = load double, double* %3, align 8
  %100 = fmul double 2.000000e+00, %99
  %101 = fdiv double %98, %100
  store double %101, double* %10, align 8
  %102 = load double, double* %9, align 8
  %103 = load double, double* %10, align 8
  %104 = call i32 (i8*, ...) @printf(i8* getelementptr inbounds ([17 x i8], [17 x i8]* @.str.2, i64 0, i64 0), double %102, double %103)
  br label %105

105:                                              ; preds = %71, %65
  br label %106

106:                                              ; preds = %105, %30
  br label %12

107:                                              ; preds = %12
  %108 = load i32, i32* %1, align 4
  ret i32 %108
}

declare dso_local dereferenceable(280) %"class.std::basic_istream"* @_ZNSirsERi(%"class.std::basic_istream"*, i32* dereferenceable(4)) #1

declare dso_local dereferenceable(280) %"class.std::basic_istream"* @_ZNSirsERd(%"class.std::basic_istream"*, double* dereferenceable(8)) #1

declare dso_local i32 @printf(i8*, ...) #1

; Function Attrs: nounwind
declare dso_local double @sqrt(double) #2

; Function Attrs: noinline uwtable
define internal void @_GLOBAL__sub_I_713.cpp() #0 section ".text.startup" {
  call void @__cxx_global_var_init()
  ret void
}


!llvm.module.flags = !{!0}
!llvm.ident = !{!1}

!0 = !{i32 1, !"wchar_size", i32 4}
!1 = !{!"clang version 10.0.0-4ubuntu1 "}
