; ModuleID = 'source-C-CXX/26/713.cpp'
source_filename = "source-C-CXX/26/713.cpp"
target datalayout = "e-m:e-p270:32:32-p271:32:32-p272:64:64-i64:64-f80:128-n8:16:32:64-S128"
target triple = "x86_64-pc-linux-gnu"

%"class.std::ios_base::Init" = type { i8 }
%"class.std::basic_istream" = type { i32 (...)**, i64, %"class.std::basic_ios" }
%"class.std::basic_ios" = type { %"class.std::ios_base", %"class.std::basic_ostream"*, i8, i8, %"class.std::basic_streambuf"*, %"class.std::ctype"*, %"class.std::num_put"*, %"class.std::num_get"* }
%"class.std::ios_base" = type { i32 (...)**, i64, i64, i32, i32, i32, %"struct.std::ios_base::_Callback_list"*, %"struct.std::ios_base::_Words", [8 x %"struct.std::ios_base::_Words"], i32, %"struct.std::ios_base::_Words"*, %"class.std::locale" }
%"struct.std::ios_base::_Callback_list" = type { %"struct.std::ios_base::_Callback_list"*, void (i32, %"class.std::ios_base"*, i32)*, i32, i32 }
%"struct.std::ios_base::_Words" = type { i8*, i64 }
%"class.std::locale" = type { %"class.std::locale::_Impl"* }
%"class.std::locale::_Impl" = type { i32, %"class.std::locale::facet"**, i64, %"class.std::locale::facet"**, i8** }
%"class.std::locale::facet" = type <{ i32 (...)**, i32, [4 x i8] }>
%"class.std::basic_ostream" = type { i32 (...)**, %"class.std::basic_ios" }
%"class.std::basic_streambuf" = type { i32 (...)**, i8*, i8*, i8*, i8*, i8*, i8*, %"class.std::locale" }
%"class.std::ctype" = type <{ %"class.std::locale::facet.base", [4 x i8], %struct.__locale_struct*, i8, [7 x i8], i32*, i32*, i16*, i8, [256 x i8], [256 x i8], i8, [6 x i8] }>
%"class.std::locale::facet.base" = type <{ i32 (...)**, i32 }>
%struct.__locale_struct = type { [13 x %struct.__locale_data*], i16*, i32*, i32*, [13 x i8*] }
%struct.__locale_data = type opaque
%"class.std::num_put" = type { %"class.std::locale::facet.base", [4 x i8] }
%"class.std::num_get" = type { %"class.std::locale::facet.base", [4 x i8] }

@_ZStL8__ioinit = internal global %"class.std::ios_base::Init" zeroinitializer, align 1
@__dso_handle = external hidden global i8
@_ZSt3cin = external global %"class.std::basic_istream", align 8
@.str = private unnamed_addr constant [12 x i8] c"x1=x2=%.5f\0A\00", align 1
@.str.1 = private unnamed_addr constant [29 x i8] c"x1=%.5f+%.5fi;x2=%.5f-%.5fi\0A\00", align 1
@.str.2 = private unnamed_addr constant [17 x i8] c"x1=%.5f;x2=%.5f\0A\00", align 1
@llvm.global_ctors = appending global [1 x { i32, void ()*, i8* }] [{ i32, void ()*, i8* } { i32 65535, void ()* @_GLOBAL__sub_I_713.cpp, i8* null }]

declare void @_ZNSt8ios_base4InitC1Ev(%"class.std::ios_base::Init"* nonnull align 1 dereferenceable(1)) unnamed_addr #0

; Function Attrs: nounwind
declare void @_ZNSt8ios_base4InitD1Ev(%"class.std::ios_base::Init"* nonnull align 1 dereferenceable(1)) unnamed_addr #1

; Function Attrs: nofree nounwind
declare i32 @__cxa_atexit(void (i8*)*, i8*, i8*) local_unnamed_addr #2

; Function Attrs: mustprogress norecurse sspstrong uwtable
define dso_local i32 @main() local_unnamed_addr #3 {
  %1 = alloca i32, align 4
  %2 = alloca double, align 8
  %3 = alloca double, align 8
  %4 = alloca double, align 8
  %5 = bitcast i32* %1 to i8*
  call void @llvm.lifetime.start.p0i8(i64 4, i8* nonnull %5) #8
  %6 = call nonnull align 8 dereferenceable(16) %"class.std::basic_istream"* @_ZNSirsERi(%"class.std::basic_istream"* nonnull align 8 dereferenceable(16) @_ZSt3cin, i32* nonnull align 4 dereferenceable(4) %1)
  %7 = bitcast double* %2 to i8*
  %8 = bitcast double* %3 to i8*
  %9 = bitcast double* %4 to i8*
  %10 = load i32, i32* %1, align 4, !tbaa !5
  %11 = add nsw i32 %10, -1
  store i32 %11, i32* %1, align 4, !tbaa !5
  %12 = icmp eq i32 %10, 0
  br i1 %12, label %69, label %13

13:                                               ; preds = %0, %65
  call void @llvm.lifetime.start.p0i8(i64 8, i8* nonnull %7) #8
  call void @llvm.lifetime.start.p0i8(i64 8, i8* nonnull %8) #8
  call void @llvm.lifetime.start.p0i8(i64 8, i8* nonnull %9) #8
  %14 = call nonnull align 8 dereferenceable(16) %"class.std::basic_istream"* @_ZNSi10_M_extractIdEERSiRT_(%"class.std::basic_istream"* nonnull align 8 dereferenceable(16) @_ZSt3cin, double* nonnull align 8 dereferenceable(8) %2)
  %15 = call nonnull align 8 dereferenceable(16) %"class.std::basic_istream"* @_ZNSi10_M_extractIdEERSiRT_(%"class.std::basic_istream"* nonnull align 8 dereferenceable(16) %14, double* nonnull align 8 dereferenceable(8) %3)
  %16 = call nonnull align 8 dereferenceable(16) %"class.std::basic_istream"* @_ZNSi10_M_extractIdEERSiRT_(%"class.std::basic_istream"* nonnull align 8 dereferenceable(16) %15, double* nonnull align 8 dereferenceable(8) %4)
  %17 = load double, double* %3, align 8, !tbaa !9
  %18 = fmul double %17, %17
  %19 = load double, double* %2, align 8, !tbaa !9
  %20 = fmul double %19, 4.000000e+00
  %21 = load double, double* %4, align 8, !tbaa !9
  %22 = fmul double %20, %21
  %23 = fsub double %18, %22
  %24 = fcmp oeq double %23, 0.000000e+00
  br i1 %24, label %25, label %30

25:                                               ; preds = %13
  %26 = fneg double %17
  %27 = fmul double %19, 2.000000e+00
  %28 = fdiv double %26, %27
  %29 = call i32 (i8*, ...) @printf(i8* nonnull dereferenceable(1) getelementptr inbounds ([12 x i8], [12 x i8]* @.str, i64 0, i64 0), double %28)
  br label %65

30:                                               ; preds = %13
  %31 = fcmp olt double %23, 0.000000e+00
  br i1 %31, label %32, label %46

32:                                               ; preds = %30
  %33 = fneg double %17
  %34 = fmul double %19, 2.000000e+00
  %35 = fdiv double %33, %34
  %36 = fsub double %22, %18
  %37 = call double @sqrt(double %36) #8
  %38 = load double, double* %2, align 8, !tbaa !9
  %39 = fmul double %38, 2.000000e+00
  %40 = fdiv double %37, %39
  %41 = fcmp ole double %35, 0.000000e+00
  %42 = fcmp ogt double %35, 0xBEB0C6F7A0B5ED8D
  %43 = and i1 %41, %42
  %44 = select i1 %43, double 0x3E7AD7F29ABCAF48, double %35
  %45 = call i32 (i8*, ...) @printf(i8* nonnull dereferenceable(1) getelementptr inbounds ([29 x i8], [29 x i8]* @.str.1, i64 0, i64 0), double %44, double %40, double %44, double %40)
  br label %65

46:                                               ; preds = %30
  %47 = call double @sqrt(double %23) #8
  %48 = fsub double %47, %17
  %49 = load double, double* %2, align 8, !tbaa !9
  %50 = fmul double %49, 2.000000e+00
  %51 = fdiv double %48, %50
  %52 = load double, double* %3, align 8, !tbaa !9
  %53 = fneg double %52
  %54 = fmul double %52, %52
  %55 = fmul double %49, 4.000000e+00
  %56 = load double, double* %4, align 8, !tbaa !9
  %57 = fmul double %55, %56
  %58 = fsub double %54, %57
  %59 = call double @sqrt(double %58) #8
  %60 = fsub double %53, %59
  %61 = load double, double* %2, align 8, !tbaa !9
  %62 = fmul double %61, 2.000000e+00
  %63 = fdiv double %60, %62
  %64 = call i32 (i8*, ...) @printf(i8* nonnull dereferenceable(1) getelementptr inbounds ([17 x i8], [17 x i8]* @.str.2, i64 0, i64 0), double %51, double %63)
  br label %65

65:                                               ; preds = %32, %46, %25
  call void @llvm.lifetime.end.p0i8(i64 8, i8* nonnull %9) #8
  call void @llvm.lifetime.end.p0i8(i64 8, i8* nonnull %8) #8
  call void @llvm.lifetime.end.p0i8(i64 8, i8* nonnull %7) #8
  %66 = load i32, i32* %1, align 4, !tbaa !5
  %67 = add nsw i32 %66, -1
  store i32 %67, i32* %1, align 4, !tbaa !5
  %68 = icmp eq i32 %66, 0
  br i1 %68, label %69, label %13, !llvm.loop !11

69:                                               ; preds = %65, %0
  call void @llvm.lifetime.end.p0i8(i64 4, i8* nonnull %5) #8
  ret i32 0
}

; Function Attrs: argmemonly mustprogress nofree nosync nounwind willreturn
declare void @llvm.lifetime.start.p0i8(i64 immarg, i8* nocapture) #4

declare nonnull align 8 dereferenceable(16) %"class.std::basic_istream"* @_ZNSirsERi(%"class.std::basic_istream"* nonnull align 8 dereferenceable(16), i32* nonnull align 4 dereferenceable(4)) local_unnamed_addr #0

; Function Attrs: nofree nounwind
declare noundef i32 @printf(i8* nocapture noundef readonly, ...) local_unnamed_addr #5

; Function Attrs: mustprogress nofree nounwind willreturn
declare double @sqrt(double) local_unnamed_addr #6

; Function Attrs: argmemonly mustprogress nofree nosync nounwind willreturn
declare void @llvm.lifetime.end.p0i8(i64 immarg, i8* nocapture) #4

declare nonnull align 8 dereferenceable(16) %"class.std::basic_istream"* @_ZNSi10_M_extractIdEERSiRT_(%"class.std::basic_istream"* nonnull align 8 dereferenceable(16), double* nonnull align 8 dereferenceable(8)) local_unnamed_addr #0

; Function Attrs: sspstrong uwtable
define internal void @_GLOBAL__sub_I_713.cpp() #7 section ".text.startup" {
  tail call void @_ZNSt8ios_base4InitC1Ev(%"class.std::ios_base::Init"* nonnull align 1 dereferenceable(1) @_ZStL8__ioinit)
  %1 = tail call i32 @__cxa_atexit(void (i8*)* bitcast (void (%"class.std::ios_base::Init"*)* @_ZNSt8ios_base4InitD1Ev to void (i8*)*), i8* getelementptr inbounds (%"class.std::ios_base::Init", %"class.std::ios_base::Init"* @_ZStL8__ioinit, i64 0, i32 0), i8* nonnull @__dso_handle) #8
  ret void
}


!llvm.module.flags = !{!0, !1, !2, !3}
!llvm.ident = !{!4}

!0 = !{i32 1, !"wchar_size", i32 4}
!1 = !{i32 7, !"PIC Level", i32 2}
!2 = !{i32 7, !"PIE Level", i32 2}
!3 = !{i32 7, !"uwtable", i32 1}
!4 = !{!"clang version 13.0.0"}
!5 = !{!6, !6, i64 0}
!6 = !{!"int", !7, i64 0}
!7 = !{!"omnipotent char", !8, i64 0}
!8 = !{!"Simple C++ TBAA"}
!9 = !{!10, !10, i64 0}
!10 = !{!"double", !7, i64 0}
!11 = distinct !{!11, !12}
!12 = !{!"llvm.loop.mustprogress"}
